target datalayout = "e-m:e-p270:32:32-p271:32:32-p272:64:64-i64:64-i128:128-f80:128-n8:16:32:64-S128"
target triple = "x86_64-pc-linux-gnu"

%struct.PQArgBlock = type { i32, i32, %union.anon }
%union.anon = type { ptr }
%struct.pg_conn = type { ptr, ptr, ptr, ptr, ptr, ptr, ptr, ptr, ptr, ptr, ptr, ptr, ptr, ptr, ptr, ptr, ptr, ptr, ptr, ptr, ptr, ptr, ptr, ptr, ptr, ptr, ptr, ptr, ptr, ptr, ptr, ptr, ptr, ptr, ptr, ptr, ptr, ptr, ptr, ptr, ptr, ptr, ptr, i8, ptr, i32, %struct.PGNoticeHooks, ptr, i32, i32, i32, i32, i32, [6 x i8], i8, i8, i32, i8, i8, i32, i8, i32, ptr, ptr, i32, i32, ptr, ptr, ptr, ptr, ptr, i32, %struct.SockAddr, %struct.SockAddr, i32, i32, i8, i8, i8, i8, i8, i8, ptr, i8, i32, [1 x ptr], i8, i8, ptr, ptr, i32, i32, i32, i8, i8, i32, i32, ptr, i8, i64, ptr, i64, ptr, i32, i32, ptr, i32, i8, i32, i32, i32, i32, ptr, %struct.pg_prng_state, ptr, i32, i32, i32, i32, ptr, i32, i32, i32, i32, ptr, i32, ptr, i8, ptr, ptr, ptr, i32, i8, i8, i8, i8, i8, i8, i8, i8, %struct.PQExpBufferData, i32, %struct.PQExpBufferData }
%struct.PGNoticeHooks = type { ptr, ptr, ptr, ptr }
%struct.SockAddr = type { %struct.sockaddr_storage, i32 }
%struct.sockaddr_storage = type { i16, [118 x i8], i64 }
%struct.pg_prng_state = type { i64, i64 }
%struct.PQExpBufferData = type { ptr, i64, i64 }
%struct.pgLobjfuncs = type { i32, i32, i32, i32, i32, i32, i32, i32, i32, i32, i32, i32, i32 }
%union.anon.0 = type { i64 }

@.str = private unnamed_addr constant [36 x i8] c"cannot determine OID of function %s\00", align 1
@.str.3 = private unnamed_addr constant [14 x i8] c"lo_truncate64\00", align 1

; Function Attrs: nounwind uwtable
define internal i64 @lo_hton64(i64 noundef %0) #0 {
  %2 = alloca i64, align 8
  %3 = alloca %union.anon.0, align 8
  %4 = alloca i32, align 4
  store i64 %0, ptr %2, align 8
  call void @llvm.lifetime.start.p0(i64 8, ptr %3) #10
  call void @llvm.lifetime.start.p0(i64 4, ptr %4) #10
  %5 = load i64, ptr %2, align 8
  %6 = ashr i64 %5, 32
  %7 = trunc i64 %6 to i32
  store i32 %7, ptr %4, align 4
  %8 = load i32, ptr %4, align 4
  %9 = call i32 @llvm.bswap.i32(i32 %8)
  %10 = getelementptr inbounds [2 x i32], ptr %3, i64 0, i64 0
  store i32 %9, ptr %10, align 8
  %11 = load i64, ptr %2, align 8
  %12 = trunc i64 %11 to i32
  store i32 %12, ptr %4, align 4
  %13 = load i32, ptr %4, align 4
  %14 = call i32 @llvm.bswap.i32(i32 %13)
  %15 = getelementptr inbounds [2 x i32], ptr %3, i64 0, i64 1
  store i32 %14, ptr %15, align 4
  %16 = load i64, ptr %3, align 8
  call void @llvm.lifetime.end.p0(i64 4, ptr %4) #10
  call void @llvm.lifetime.end.p0(i64 8, ptr %3) #10
  ret i64 %16
}

; Function Attrs: nounwind uwtable
define i32 @lo_truncate64(ptr noundef %0, i32 noundef %1, i64 noundef %2) #0 {
  %4 = alloca i32, align 4
  %5 = alloca ptr, align 8
  %6 = alloca i32, align 4
  %7 = alloca i64, align 8
  %8 = alloca [2 x %struct.PQArgBlock], align 16
  %9 = alloca ptr, align 8
  %10 = alloca i32, align 4
  %11 = alloca i32, align 4
  %12 = alloca i32, align 4
  store ptr %0, ptr %5, align 8
  store i32 %1, ptr %6, align 4
  store i64 %2, ptr %7, align 8
  call void @llvm.lifetime.start.p0(i64 32, ptr %8) #10
  call void @llvm.lifetime.start.p0(i64 8, ptr %9) #10
  call void @llvm.lifetime.start.p0(i64 4, ptr %10) #10
  call void @llvm.lifetime.start.p0(i64 4, ptr %11) #10
  %13 = load ptr, ptr %5, align 8
  %14 = call i32 @lo_initialize(ptr noundef %13)
  %15 = icmp slt i32 %14, 0
  br i1 %15, label %16, label %17

16:                                               ; preds = %3
  store i32 -1, ptr %4, align 4
  store i32 1, ptr %12, align 4
  br label %58

17:                                               ; preds = %3
  %18 = load ptr, ptr %5, align 8
  %19 = getelementptr inbounds nuw %struct.pg_conn, ptr %18, i32 0, i32 112
  %20 = load ptr, ptr %19, align 8
  %21 = getelementptr inbounds nuw %struct.pgLobjfuncs, ptr %20, i32 0, i32 10
  %22 = load i32, ptr %21, align 4
  %23 = icmp eq i32 %22, 0
  br i1 %23, label %24, label %26

24:                                               ; preds = %17
  %25 = load ptr, ptr %5, align 8
  call void (ptr, ptr, ...) @libpq_append_conn_error(ptr noundef %25, ptr noundef @.str, ptr noundef @.str.3)
  store i32 -1, ptr %4, align 4
  store i32 1, ptr %12, align 4
  br label %58

26:                                               ; preds = %17
  %27 = getelementptr inbounds [2 x %struct.PQArgBlock], ptr %8, i64 0, i64 0
  %28 = getelementptr inbounds nuw %struct.PQArgBlock, ptr %27, i32 0, i32 1
  store i32 1, ptr %28, align 4
  %29 = getelementptr inbounds [2 x %struct.PQArgBlock], ptr %8, i64 0, i64 0
  %30 = getelementptr inbounds nuw %struct.PQArgBlock, ptr %29, i32 0, i32 0
  store i32 4, ptr %30, align 16
  %31 = load i32, ptr %6, align 4
  %32 = getelementptr inbounds [2 x %struct.PQArgBlock], ptr %8, i64 0, i64 0
  %33 = getelementptr inbounds nuw %struct.PQArgBlock, ptr %32, i32 0, i32 2
  store i32 %31, ptr %33, align 8
  %34 = load i64, ptr %7, align 8
  %35 = call i64 @lo_hton64(i64 noundef %34)
  store i64 %35, ptr %7, align 8
  %36 = getelementptr inbounds [2 x %struct.PQArgBlock], ptr %8, i64 0, i64 1
  %37 = getelementptr inbounds nuw %struct.PQArgBlock, ptr %36, i32 0, i32 1
  store i32 0, ptr %37, align 4
  %38 = getelementptr inbounds [2 x %struct.PQArgBlock], ptr %8, i64 0, i64 1
  %39 = getelementptr inbounds nuw %struct.PQArgBlock, ptr %38, i32 0, i32 0
  store i32 8, ptr %39, align 16
  %40 = getelementptr inbounds [2 x %struct.PQArgBlock], ptr %8, i64 0, i64 1
  %41 = getelementptr inbounds nuw %struct.PQArgBlock, ptr %40, i32 0, i32 2
  store ptr %7, ptr %41, align 8
  %42 = load ptr, ptr %5, align 8
  %43 = load ptr, ptr %5, align 8
  %44 = getelementptr inbounds nuw %struct.pg_conn, ptr %43, i32 0, i32 112
  %45 = load ptr, ptr %44, align 8
  %46 = getelementptr inbounds nuw %struct.pgLobjfuncs, ptr %45, i32 0, i32 10
  %47 = load i32, ptr %46, align 4
  %48 = getelementptr inbounds [2 x %struct.PQArgBlock], ptr %8, i64 0, i64 0
  %49 = call ptr @PQfn(ptr noundef %42, i32 noundef %47, ptr noundef %10, ptr noundef %11, i32 noundef 1, ptr noundef %48, i32 noundef 2)
  store ptr %49, ptr %9, align 8
  %50 = load ptr, ptr %9, align 8
  %51 = call i32 @PQresultStatus(ptr noundef %50)
  %52 = icmp eq i32 %51, 1
  br i1 %52, label %53, label %56

53:                                               ; preds = %26
  %54 = load ptr, ptr %9, align 8
  call void @PQclear(ptr noundef %54)
  %55 = load i32, ptr %10, align 4
  store i32 %55, ptr %4, align 4
  store i32 1, ptr %12, align 4
  br label %58

56:                                               ; preds = %26
  %57 = load ptr, ptr %9, align 8
  call void @PQclear(ptr noundef %57)
  store i32 -1, ptr %4, align 4
  store i32 1, ptr %12, align 4
  br label %58

58:                                               ; preds = %56, %53, %24, %16
  call void @llvm.lifetime.end.p0(i64 4, ptr %11) #10
  call void @llvm.lifetime.end.p0(i64 4, ptr %10) #10
  call void @llvm.lifetime.end.p0(i64 8, ptr %9) #10
  call void @llvm.lifetime.end.p0(i64 32, ptr %8) #10
  %59 = load i32, ptr %4, align 4
  ret i32 %59
}