; Function Attrs: nounwind uwtable
define i32 @lo_truncate64(ptr noundef %0, i32 noundef %1, i64 noundef %2) local_unnamed_addr #0 {
  %4 = alloca i64, align 8
  %5 = alloca [2 x %struct.PQArgBlock], align 16
  %6 = alloca i32, align 4
  %7 = alloca i32, align 4
  call void @llvm.lifetime.start.p0(i64 32, ptr nonnull %5) #10
  call void @llvm.lifetime.start.p0(i64 4, ptr nonnull %6) #10
  call void @llvm.lifetime.start.p0(i64 4, ptr nonnull %7) #10
  %8 = tail call fastcc i32 @lo_initialize(ptr noundef %0)
  %9 = icmp slt i32 %8, 0
  br i1 %9, label %27, label %10

10:                                               ; preds = %3
  %11 = getelementptr inbounds nuw i8, ptr %0, i64 976
  %12 = load ptr, ptr %11, align 8
  %13 = getelementptr inbounds nuw i8, ptr %12, i64 40
  %14 = load i32, ptr %13, align 4
  %15 = icmp eq i32 %14, 0
  br i1 %15, label %16, label %17

16:                                               ; preds = %10
  tail call void (ptr, ptr, ...) @libpq_append_conn_error(ptr noundef nonnull %0, ptr noundef nonnull @.str, ptr noundef nonnull @.str.3) #10
  br label %27

17:                                               ; preds = %10
  %18 = getelementptr inbounds nuw i8, ptr %5, i64 4
  store i32 1, ptr %18, align 4
  store i32 4, ptr %5, align 16
  %19 = getelementptr inbounds nuw i8, ptr %5, i64 8
  store i32 %1, ptr %19, align 8
  %.sroa.0.0.insert.insert.i = tail call noundef i64 @llvm.bswap.i64(i64 %2)
  store i64 %.sroa.0.0.insert.insert.i, ptr %4, align 8
  %20 = getelementptr inbounds nuw i8, ptr %5, i64 16
  %21 = getelementptr inbounds nuw i8, ptr %5, i64 20
  store i32 0, ptr %21, align 4
  store i32 8, ptr %20, align 16
  %22 = getelementptr inbounds nuw i8, ptr %5, i64 24
  store ptr %4, ptr %22, align 8
  %23 = call ptr @PQfn(ptr noundef nonnull %0, i32 noundef %14, ptr noundef nonnull %6, ptr noundef nonnull %7, i32 noundef 1, ptr noundef nonnull %5, i32 noundef 2) #10
  %24 = call i32 @PQresultStatus(ptr noundef %23) #10
  %25 = icmp eq i32 %24, 1
  call void @PQclear(ptr noundef %23) #10
  %26 = load i32, ptr %6, align 4
  %spec.select = select i1 %25, i32 %26, i32 -1
  br label %27

27:                                               ; preds = %17, %3, %16
  %.0 = phi i32 [ -1, %16 ], [ -1, %3 ], [ %spec.select, %17 ]
  call void @llvm.lifetime.end.p0(i64 4, ptr nonnull %7) #10
  call void @llvm.lifetime.end.p0(i64 4, ptr nonnull %6) #10
  call void @llvm.lifetime.end.p0(i64 32, ptr nonnull %5) #10
  ret i32 %.0
}